target datalayout = "e-m:e-p270:32:32-p271:32:32-p272:64:64-i64:64-i128:128-f80:128-n8:16:32:64-S128"
target triple = "x86_64-pc-linux-gnu"

%struct.CVodeMemRec = type { ptr, double, ptr, ptr, i32, i32, double, double, ptr, i32, i32, ptr, ptr, i32, i32, ptr, i32, i32, double, double, ptr, i32, i32, i32, i32, ptr, ptr, ptr, i32, i32, ptr, ptr, ptr, i32, double, i32, i32, double, ptr, ptr, ptr, i32, ptr, ptr, i32, i32, i32, double, ptr, ptr, ptr, [13 x ptr], ptr, ptr, ptr, ptr, ptr, ptr, ptr, ptr, ptr, [13 x ptr], ptr, ptr, ptr, ptr, [13 x ptr], ptr, ptr, ptr, ptr, ptr, i32, [13 x ptr], ptr, ptr, ptr, ptr, ptr, i32, i32, double, i32, i32, i32, i32, i32, double, double, double, double, double, double, double, double, [14 x double], [6 x double], [13 x double], double, double, double, double, double, double, double, double, i32, double, double, i32, double, double, ptr, i32, i64, i32, i32, i32, double, double, double, double, double, double, double, double, double, double, double, double, i64, i32, i64, i64, i64, i64, i64, i64, i64, i64, i64, ptr, i64, i64, ptr, i64, i64, ptr, i64, i64, i64, i64, i64, i64, i32, double, double, double, i64, i64, i64, i64, i64, i64, ptr, i32, ptr, i32, ptr, i32, ptr, i32, i32, i64, i32, ptr, i32, ptr, ptr, ptr, ptr, ptr, ptr, i32, i32, ptr, ptr, ptr, ptr, ptr, i64, double, i32, i32, i64, double, double, double, i32, i32, double, i32, i32, i32, i32, i32, i32, i32, i32, i32, i32, i32, i32, i32, i32, i32, i32, ptr, i64, i32, [6 x [4 x double]], i32, i64, ptr, i32, ptr, ptr, double, double, double, ptr, ptr, ptr, double, double, i32, i32, i64, ptr, i32, ptr, i32, i32, [13 x double], ptr, ptr, ptr, i32, ptr, i32 }
%struct._generic_N_Vector = type { ptr, ptr, ptr }
%struct._generic_N_Vector_Ops = type { ptr, ptr, ptr, ptr, ptr, ptr, ptr, ptr, ptr, ptr, ptr, ptr, ptr, ptr, ptr, ptr, ptr, ptr, ptr, ptr, ptr, ptr, ptr, ptr, ptr, ptr, ptr, ptr, ptr, ptr, ptr, ptr, ptr, ptr, ptr, ptr, ptr, ptr, ptr, ptr, ptr, ptr, ptr, ptr, ptr, ptr, ptr, ptr, ptr, ptr, ptr, ptr, ptr, ptr, ptr, ptr }
%struct.CVBandPrecDataRec = type { i64, i64, i64, ptr, ptr, ptr, ptr, ptr, i64, ptr }
%struct.CVLsMemRec = type { i32, i32, i32, ptr, ptr, i32, double, i32, double, double, ptr, ptr, ptr, ptr, ptr, ptr, ptr, i64, i64, i64, i64, i64, i64, i64, i64, i64, i64, double, ptr, ptr, ptr, ptr, i32, ptr, ptr, ptr, ptr, i32, ptr, ptr, i32 }
%struct._generic_SUNMatrix = type { ptr, ptr, ptr }
%struct._generic_SUNMatrix_Ops = type { ptr, ptr, ptr, ptr, ptr, ptr, ptr, ptr, ptr, ptr }
%struct._generic_SUNLinearSolver = type { ptr, ptr, ptr }
%struct._generic_SUNLinearSolver_Ops = type { ptr, ptr, ptr, ptr, ptr, ptr, ptr, ptr, ptr, ptr, ptr, ptr, ptr, ptr, ptr }

@.str = private unnamed_addr constant [123 x i8] c"generated/home/dtcxzyw/WorkSpace/Projects/compilers/llvm-opt-benchmark/bench/sundials/sundials/src/cvodes/cvodes_bandpre.c\00", align 1
@.str.1 = private unnamed_addr constant [27 x i8] c"Integrator memory is NULL.\00", align 1
@.str.2 = private unnamed_addr constant [80 x i8] c"Linear solver memory is NULL. One of the SPILS linear solvers must be attached.\00", align 1
@__func__.CVBandPrecGetWorkSpace = private unnamed_addr constant [23 x i8] c"CVBandPrecGetWorkSpace\00", align 1
@.str.6 = private unnamed_addr constant [67 x i8] c"Band preconditioner memory is NULL. CVBandPrecInit must be called.\00", align 1

; Function Attrs: nounwind uwtable
define i32 @CVBandPrecGetWorkSpace(ptr noundef %0, ptr noundef %1, ptr noundef %2) #0 {
  %4 = alloca i32, align 4
  %5 = alloca ptr, align 8
  %6 = alloca ptr, align 8
  %7 = alloca ptr, align 8
  %8 = alloca ptr, align 8
  %9 = alloca ptr, align 8
  %10 = alloca ptr, align 8
  %11 = alloca i64, align 8
  %12 = alloca i64, align 8
  %13 = alloca i64, align 8
  %14 = alloca i64, align 8
  %15 = alloca i32, align 4
  %16 = alloca i32, align 4
  store ptr %0, ptr %5, align 8, !tbaa !3
  store ptr %1, ptr %6, align 8, !tbaa !55
  store ptr %2, ptr %7, align 8, !tbaa !55
  call void @llvm.lifetime.start.p0(i64 8, ptr %8) #6
  call void @llvm.lifetime.start.p0(i64 8, ptr %9) #6
  call void @llvm.lifetime.start.p0(i64 8, ptr %10) #6
  call void @llvm.lifetime.start.p0(i64 8, ptr %11) #6
  call void @llvm.lifetime.start.p0(i64 8, ptr %12) #6
  call void @llvm.lifetime.start.p0(i64 8, ptr %13) #6
  call void @llvm.lifetime.start.p0(i64 8, ptr %14) #6
  call void @llvm.lifetime.start.p0(i64 4, ptr %15) #6
  %17 = load ptr, ptr %5, align 8, !tbaa !3
  %18 = icmp eq ptr %17, null
  br i1 %18, label %19, label %20

19:                                               ; preds = %3
  call void (ptr, i32, i32, ptr, ptr, ptr, ...) @cvProcessError(ptr noundef null, i32 noundef -1, i32 noundef 225, ptr noundef @__func__.CVBandPrecGetWorkSpace, ptr noundef @.str, ptr noundef @.str.1)
  store i32 -1, ptr %4, align 4
  store i32 1, ptr %16, align 4
  br label %145

20:                                               ; preds = %3
  %21 = load ptr, ptr %5, align 8, !tbaa !3
  store ptr %21, ptr %8, align 8, !tbaa !9
  %22 = load ptr, ptr %8, align 8, !tbaa !9
  %23 = getelementptr inbounds nuw %struct.CVodeMemRec, ptr %22, i32 0, i32 189
  %24 = load ptr, ptr %23, align 8, !tbaa !11
  %25 = icmp eq ptr %24, null
  br i1 %25, label %26, label %28

26:                                               ; preds = %20
  %27 = load ptr, ptr %8, align 8, !tbaa !9
  call void (ptr, i32, i32, ptr, ptr, ptr, ...) @cvProcessError(ptr noundef %27, i32 noundef -2, i32 noundef 233, ptr noundef @__func__.CVBandPrecGetWorkSpace, ptr noundef @.str, ptr noundef @.str.2)
  store i32 -2, ptr %4, align 4
  store i32 1, ptr %16, align 4
  br label %145

28:                                               ; preds = %20
  %29 = load ptr, ptr %8, align 8, !tbaa !9
  %30 = getelementptr inbounds nuw %struct.CVodeMemRec, ptr %29, i32 0, i32 189
  %31 = load ptr, ptr %30, align 8, !tbaa !11
  store ptr %31, ptr %9, align 8, !tbaa !24
  %32 = load ptr, ptr %9, align 8, !tbaa !24
  %33 = getelementptr inbounds nuw %struct.CVLsMemRec, ptr %32, i32 0, i32 31
  %34 = load ptr, ptr %33, align 8, !tbaa !51
  %35 = icmp eq ptr %34, null
  br i1 %35, label %36, label %38

36:                                               ; preds = %28
  %37 = load ptr, ptr %8, align 8, !tbaa !9
  call void (ptr, i32, i32, ptr, ptr, ptr, ...) @cvProcessError(ptr noundef %37, i32 noundef -5, i32 noundef 241, ptr noundef @__func__.CVBandPrecGetWorkSpace, ptr noundef @.str, ptr noundef @.str.6)
  store i32 -5, ptr %4, align 4
  store i32 1, ptr %16, align 4
  br label %145

38:                                               ; preds = %28
  %39 = load ptr, ptr %9, align 8, !tbaa !24
  %40 = getelementptr inbounds nuw %struct.CVLsMemRec, ptr %39, i32 0, i32 31
  %41 = load ptr, ptr %40, align 8, !tbaa !51
  store ptr %41, ptr %10, align 8, !tbaa !32
  %42 = load ptr, ptr %7, align 8, !tbaa !55
  store i64 4, ptr %42, align 8, !tbaa !7
  %43 = load ptr, ptr %6, align 8, !tbaa !55
  store i64 0, ptr %43, align 8, !tbaa !7
  %44 = load ptr, ptr %8, align 8, !tbaa !9
  %45 = getelementptr inbounds nuw %struct.CVodeMemRec, ptr %44, i32 0, i32 55
  %46 = load ptr, ptr %45, align 8, !tbaa !26
  %47 = getelementptr inbounds nuw %struct._generic_N_Vector, ptr %46, i32 0, i32 1
  %48 = load ptr, ptr %47, align 8, !tbaa !27
  %49 = getelementptr inbounds nuw %struct._generic_N_Vector_Ops, ptr %48, i32 0, i32 4
  %50 = load ptr, ptr %49, align 8, !tbaa !56
  %51 = icmp ne ptr %50, null
  br i1 %51, label %52, label %66

52:                                               ; preds = %38
  %53 = load ptr, ptr %8, align 8, !tbaa !9
  %54 = getelementptr inbounds nuw %struct.CVodeMemRec, ptr %53, i32 0, i32 55
  %55 = load ptr, ptr %54, align 8, !tbaa !26
  call void @N_VSpace(ptr noundef %55, ptr noundef %11, ptr noundef %12)
  %56 = load i64, ptr %12, align 8, !tbaa !7
  %57 = mul nsw i64 2, %56
  %58 = load ptr, ptr %7, align 8, !tbaa !55
  %59 = load i64, ptr %58, align 8, !tbaa !7
  %60 = add nsw i64 %59, %57
  store i64 %60, ptr %58, align 8, !tbaa !7
  %61 = load i64, ptr %11, align 8, !tbaa !7
  %62 = mul nsw i64 2, %61
  %63 = load ptr, ptr %6, align 8, !tbaa !55
  %64 = load i64, ptr %63, align 8, !tbaa !7
  %65 = add nsw i64 %64, %62
  store i64 %65, ptr %63, align 8, !tbaa !7
  br label %66

66:                                               ; preds = %52, %38
  %67 = load ptr, ptr %10, align 8, !tbaa !32
  %68 = getelementptr inbounds nuw %struct.CVBandPrecDataRec, ptr %67, i32 0, i32 3
  %69 = load ptr, ptr %68, align 8, !tbaa !42
  %70 = getelementptr inbounds nuw %struct._generic_SUNMatrix, ptr %69, i32 0, i32 1
  %71 = load ptr, ptr %70, align 8, !tbaa !57
  %72 = getelementptr inbounds nuw %struct._generic_SUNMatrix_Ops, ptr %71, i32 0, i32 9
  %73 = load ptr, ptr %72, align 8, !tbaa !60
  %74 = icmp ne ptr %73, null
  br i1 %74, label %75, label %92

75:                                               ; preds = %66
  %76 = load ptr, ptr %10, align 8, !tbaa !32
  %77 = getelementptr inbounds nuw %struct.CVBandPrecDataRec, ptr %76, i32 0, i32 3
  %78 = load ptr, ptr %77, align 8, !tbaa !42
  %79 = call i32 @SUNMatSpace(ptr noundef %78, ptr noundef %13, ptr noundef %14)
  store i32 %79, ptr %15, align 4, !tbaa !48
  %80 = load i32, ptr %15, align 4, !tbaa !48
  %81 = icmp ne i32 %80, 0
  br i1 %81, label %82, label %83

82:                                               ; preds = %75
  store i32 -1, ptr %4, align 4
  store i32 1, ptr %16, align 4
  br label %145

83:                                               ; preds = %75
  %84 = load i64, ptr %14, align 8, !tbaa !7
  %85 = load ptr, ptr %7, align 8, !tbaa !55
  %86 = load i64, ptr %85, align 8, !tbaa !7
  %87 = add nsw i64 %86, %84
  store i64 %87, ptr %85, align 8, !tbaa !7
  %88 = load i64, ptr %13, align 8, !tbaa !7
  %89 = load ptr, ptr %6, align 8, !tbaa !55
  %90 = load i64, ptr %89, align 8, !tbaa !7
  %91 = add nsw i64 %90, %88
  store i64 %91, ptr %89, align 8, !tbaa !7
  br label %92

92:                                               ; preds = %83, %66
  %93 = load ptr, ptr %10, align 8, !tbaa !32
  %94 = getelementptr inbounds nuw %struct.CVBandPrecDataRec, ptr %93, i32 0, i32 4
  %95 = load ptr, ptr %94, align 8, !tbaa !44
  %96 = getelementptr inbounds nuw %struct._generic_SUNMatrix, ptr %95, i32 0, i32 1
  %97 = load ptr, ptr %96, align 8, !tbaa !57
  %98 = getelementptr inbounds nuw %struct._generic_SUNMatrix_Ops, ptr %97, i32 0, i32 9
  %99 = load ptr, ptr %98, align 8, !tbaa !60
  %100 = icmp ne ptr %99, null
  br i1 %100, label %101, label %118

101:                                              ; preds = %92
  %102 = load ptr, ptr %10, align 8, !tbaa !32
  %103 = getelementptr inbounds nuw %struct.CVBandPrecDataRec, ptr %102, i32 0, i32 4
  %104 = load ptr, ptr %103, align 8, !tbaa !44
  %105 = call i32 @SUNMatSpace(ptr noundef %104, ptr noundef %13, ptr noundef %14)
  store i32 %105, ptr %15, align 4, !tbaa !48
  %106 = load i32, ptr %15, align 4, !tbaa !48
  %107 = icmp ne i32 %106, 0
  br i1 %107, label %108, label %109

108:                                              ; preds = %101
  store i32 -1, ptr %4, align 4
  store i32 1, ptr %16, align 4
  br label %145

109:                                              ; preds = %101
  %110 = load i64, ptr %14, align 8, !tbaa !7
  %111 = load ptr, ptr %7, align 8, !tbaa !55
  %112 = load i64, ptr %111, align 8, !tbaa !7
  %113 = add nsw i64 %112, %110
  store i64 %113, ptr %111, align 8, !tbaa !7
  %114 = load i64, ptr %13, align 8, !tbaa !7
  %115 = load ptr, ptr %6, align 8, !tbaa !55
  %116 = load i64, ptr %115, align 8, !tbaa !7
  %117 = add nsw i64 %116, %114
  store i64 %117, ptr %115, align 8, !tbaa !7
  br label %118

118:                                              ; preds = %109, %92
  %119 = load ptr, ptr %10, align 8, !tbaa !32
  %120 = getelementptr inbounds nuw %struct.CVBandPrecDataRec, ptr %119, i32 0, i32 5
  %121 = load ptr, ptr %120, align 8, !tbaa !45
  %122 = getelementptr inbounds nuw %struct._generic_SUNLinearSolver, ptr %121, i32 0, i32 1
  %123 = load ptr, ptr %122, align 8, !tbaa !62
  %124 = getelementptr inbounds nuw %struct._generic_SUNLinearSolver_Ops, ptr %123, i32 0, i32 12
  %125 = load ptr, ptr %124, align 8, !tbaa !65
  %126 = icmp ne ptr %125, null
  br i1 %126, label %127, label %144

127:                                              ; preds = %118
  %128 = load ptr, ptr %10, align 8, !tbaa !32
  %129 = getelementptr inbounds nuw %struct.CVBandPrecDataRec, ptr %128, i32 0, i32 5
  %130 = load ptr, ptr %129, align 8, !tbaa !45
  %131 = call i32 @SUNLinSolSpace(ptr noundef %130, ptr noundef %13, ptr noundef %14)
  store i32 %131, ptr %15, align 4, !tbaa !48
  %132 = load i32, ptr %15, align 4, !tbaa !48
  %133 = icmp ne i32 %132, 0
  br i1 %133, label %134, label %135

134:                                              ; preds = %127
  store i32 -1, ptr %4, align 4
  store i32 1, ptr %16, align 4
  br label %145

135:                                              ; preds = %127
  %136 = load i64, ptr %14, align 8, !tbaa !7
  %137 = load ptr, ptr %7, align 8, !tbaa !55
  %138 = load i64, ptr %137, align 8, !tbaa !7
  %139 = add nsw i64 %138, %136
  store i64 %139, ptr %137, align 8, !tbaa !7
  %140 = load i64, ptr %13, align 8, !tbaa !7
  %141 = load ptr, ptr %6, align 8, !tbaa !55
  %142 = load i64, ptr %141, align 8, !tbaa !7
  %143 = add nsw i64 %142, %140
  store i64 %143, ptr %141, align 8, !tbaa !7
  br label %144

144:                                              ; preds = %135, %118
  store i32 0, ptr %4, align 4
  store i32 1, ptr %16, align 4
  br label %145

145:                                              ; preds = %144, %134, %108, %82, %36, %26, %19
  call void @llvm.lifetime.end.p0(i64 4, ptr %15) #6
  call void @llvm.lifetime.end.p0(i64 8, ptr %14) #6
  call void @llvm.lifetime.end.p0(i64 8, ptr %13) #6
  call void @llvm.lifetime.end.p0(i64 8, ptr %12) #6
  call void @llvm.lifetime.end.p0(i64 8, ptr %11) #6
  call void @llvm.lifetime.end.p0(i64 8, ptr %10) #6
  call void @llvm.lifetime.end.p0(i64 8, ptr %9) #6
  call void @llvm.lifetime.end.p0(i64 8, ptr %8) #6
  %146 = load i32, ptr %4, align 4
  ret i32 %146
}